; Function Attrs: nounwind uwtable
define void @Fraig_ManSetPo(ptr noundef readonly captures(none) %0, ptr noundef %1) local_unnamed_addr #2 {
  %3 = ptrtoint ptr %1 to i64
  %4 = and i64 %3, -2
  %5 = inttoptr i64 %4 to ptr
  %6 = getelementptr inbounds nuw i8, ptr %5, i64 24
  %7 = load i32, ptr %6, align 8
  %8 = or i32 %7, 2
  store i32 %8, ptr %6, align 8
  %9 = getelementptr inbounds nuw i8, ptr %0, i64 16
  %10 = load ptr, ptr %9, align 8, !tbaa !20
  tail call void @Fraig_NodeVecPush(ptr noundef %10, ptr noundef %1) #7
  ret void
}